target datalayout = "e-m:e-p270:32:32-p271:32:32-p272:64:64-i64:64-i128:128-f80:128-n8:16:32:64-S128"
target triple = "x86_64-pc-linux-gnu"

%struct.AVXTEA = type { [16 x i32] }

; Function Attrs: nounwind uwtable
define void @av_xtea_le_init(ptr noundef %0, ptr noundef %1) #0 {
  %3 = alloca ptr, align 8
  %4 = alloca ptr, align 8
  %5 = alloca i32, align 4
  store ptr %0, ptr %3, align 8, !tbaa !4
  store ptr %1, ptr %4, align 8, !tbaa !9
  call void @llvm.lifetime.start.p0(i64 4, ptr %5) #5
  store i32 0, ptr %5, align 4, !tbaa !11
  br label %6

6:                                                ; preds = %21, %2
  %7 = load i32, ptr %5, align 4, !tbaa !11
  %8 = icmp slt i32 %7, 4
  br i1 %8, label %9, label %24

9:                                                ; preds = %6
  %10 = load ptr, ptr %4, align 8, !tbaa !9
  %11 = load i32, ptr %5, align 4, !tbaa !11
  %12 = shl i32 %11, 2
  %13 = sext i32 %12 to i64
  %14 = getelementptr inbounds i8, ptr %10, i64 %13
  %15 = load i32, ptr %14, align 1, !tbaa !13
  %16 = load ptr, ptr %3, align 8, !tbaa !4
  %17 = getelementptr inbounds nuw %struct.AVXTEA, ptr %16, i32 0, i32 0
  %18 = load i32, ptr %5, align 4, !tbaa !11
  %19 = sext i32 %18 to i64
  %20 = getelementptr inbounds [16 x i32], ptr %17, i64 0, i64 %19
  store i32 %15, ptr %20, align 4, !tbaa !11
  br label %21

21:                                               ; preds = %9
  %22 = load i32, ptr %5, align 4, !tbaa !11
  %23 = add nsw i32 %22, 1
  store i32 %23, ptr %5, align 4, !tbaa !11
  br label %6, !llvm.loop !16

24:                                               ; preds = %6
  call void @llvm.lifetime.end.p0(i64 4, ptr %5) #5
  ret void
}